target datalayout = "e-m:e-p270:32:32-p271:32:32-p272:64:64-i64:64-i128:128-f80:128-n8:16:32:64-S128"
target triple = "x86_64-pc-linux-gnu"

@set_to_default = internal global ptr @set_separate, align 8
@.str.9 = private unnamed_addr constant [4 x i8] c"off\00", align 1
@.str.10 = private unnamed_addr constant [5 x i8] c"none\00", align 1
@.str.11 = private unnamed_addr constant [2 x i8] c"1\00", align 1
@.str.12 = private unnamed_addr constant [13 x i8] c"first-parent\00", align 1
@.str.13 = private unnamed_addr constant [9 x i8] c"separate\00", align 1
@.str.14 = private unnamed_addr constant [2 x i8] c"c\00", align 1
@.str.15 = private unnamed_addr constant [9 x i8] c"combined\00", align 1
@.str.16 = private unnamed_addr constant [3 x i8] c"cc\00", align 1
@.str.17 = private unnamed_addr constant [15 x i8] c"dense-combined\00", align 1
@.str.18 = private unnamed_addr constant [2 x i8] c"r\00", align 1
@.str.19 = private unnamed_addr constant [8 x i8] c"remerge\00", align 1
@.str.20 = private unnamed_addr constant [2 x i8] c"m\00", align 1
@.str.21 = private unnamed_addr constant [3 x i8] c"on\00", align 1

; Function Attrs: nounwind uwtable
define internal ptr @func_by_opt(ptr noundef %0) #0 {
  %2 = alloca ptr, align 8
  %3 = alloca ptr, align 8
  store ptr %0, ptr %3, align 8, !tbaa !4
  %4 = load ptr, ptr %3, align 8, !tbaa !4
  %5 = call i32 @strcmp(ptr noundef %4, ptr noundef @.str.9) #8
  %6 = icmp ne i32 %5, 0
  br i1 %6, label %7, label %11

7:                                                ; preds = %1
  %8 = load ptr, ptr %3, align 8, !tbaa !4
  %9 = call i32 @strcmp(ptr noundef %8, ptr noundef @.str.10) #8
  %10 = icmp ne i32 %9, 0
  br i1 %10, label %12, label %11

11:                                               ; preds = %7, %1
  store ptr @set_none, ptr %2, align 8
  br label %64

12:                                               ; preds = %7
  %13 = load ptr, ptr %3, align 8, !tbaa !4
  %14 = call i32 @strcmp(ptr noundef %13, ptr noundef @.str.11) #8
  %15 = icmp ne i32 %14, 0
  br i1 %15, label %16, label %20

16:                                               ; preds = %12
  %17 = load ptr, ptr %3, align 8, !tbaa !4
  %18 = call i32 @strcmp(ptr noundef %17, ptr noundef @.str.12) #8
  %19 = icmp ne i32 %18, 0
  br i1 %19, label %21, label %20

20:                                               ; preds = %16, %12
  store ptr @set_first_parent, ptr %2, align 8
  br label %64

21:                                               ; preds = %16
  %22 = load ptr, ptr %3, align 8, !tbaa !4
  %23 = call i32 @strcmp(ptr noundef %22, ptr noundef @.str.13) #8
  %24 = icmp ne i32 %23, 0
  br i1 %24, label %26, label %25

25:                                               ; preds = %21
  store ptr @set_separate, ptr %2, align 8
  br label %64

26:                                               ; preds = %21
  %27 = load ptr, ptr %3, align 8, !tbaa !4
  %28 = call i32 @strcmp(ptr noundef %27, ptr noundef @.str.14) #8
  %29 = icmp ne i32 %28, 0
  br i1 %29, label %30, label %34

30:                                               ; preds = %26
  %31 = load ptr, ptr %3, align 8, !tbaa !4
  %32 = call i32 @strcmp(ptr noundef %31, ptr noundef @.str.15) #8
  %33 = icmp ne i32 %32, 0
  br i1 %33, label %35, label %34

34:                                               ; preds = %30, %26
  store ptr @set_combined, ptr %2, align 8
  br label %64

35:                                               ; preds = %30
  %36 = load ptr, ptr %3, align 8, !tbaa !4
  %37 = call i32 @strcmp(ptr noundef %36, ptr noundef @.str.16) #8
  %38 = icmp ne i32 %37, 0
  br i1 %38, label %39, label %43

39:                                               ; preds = %35
  %40 = load ptr, ptr %3, align 8, !tbaa !4
  %41 = call i32 @strcmp(ptr noundef %40, ptr noundef @.str.17) #8
  %42 = icmp ne i32 %41, 0
  br i1 %42, label %44, label %43

43:                                               ; preds = %39, %35
  store ptr @set_dense_combined, ptr %2, align 8
  br label %64

44:                                               ; preds = %39
  %45 = load ptr, ptr %3, align 8, !tbaa !4
  %46 = call i32 @strcmp(ptr noundef %45, ptr noundef @.str.18) #8
  %47 = icmp ne i32 %46, 0
  br i1 %47, label %48, label %52

48:                                               ; preds = %44
  %49 = load ptr, ptr %3, align 8, !tbaa !4
  %50 = call i32 @strcmp(ptr noundef %49, ptr noundef @.str.19) #8
  %51 = icmp ne i32 %50, 0
  br i1 %51, label %53, label %52

52:                                               ; preds = %48, %44
  store ptr @set_remerge_diff, ptr %2, align 8
  br label %64

53:                                               ; preds = %48
  %54 = load ptr, ptr %3, align 8, !tbaa !4
  %55 = call i32 @strcmp(ptr noundef %54, ptr noundef @.str.20) #8
  %56 = icmp ne i32 %55, 0
  br i1 %56, label %57, label %61

57:                                               ; preds = %53
  %58 = load ptr, ptr %3, align 8, !tbaa !4
  %59 = call i32 @strcmp(ptr noundef %58, ptr noundef @.str.21) #8
  %60 = icmp ne i32 %59, 0
  br i1 %60, label %63, label %61

61:                                               ; preds = %57, %53
  %62 = load ptr, ptr @set_to_default, align 8, !tbaa !9
  store ptr %62, ptr %2, align 8
  br label %64

63:                                               ; preds = %57
  store ptr null, ptr %2, align 8
  br label %64

64:                                               ; preds = %63, %61, %52, %43, %34, %25, %20, %11
  %65 = load ptr, ptr %2, align 8
  ret ptr %65
}