; Function Attrs: mustprogress nofree nounwind willreturn memory(read, inaccessiblemem: none) uwtable
define internal fastcc ptr @func_by_opt(ptr noundef readonly captures(none) %0) unnamed_addr #2 {
  %2 = tail call i32 @strcmp(ptr noundef nonnull dereferenceable(1) %0, ptr noundef nonnull dereferenceable(4) @.str.9) #11
  %.not = icmp eq i32 %2, 0
  br i1 %.not, label %39, label %3

3:                                                ; preds = %1
  %4 = tail call i32 @strcmp(ptr noundef nonnull dereferenceable(1) %0, ptr noundef nonnull dereferenceable(5) @.str.10) #11
  %.not14 = icmp eq i32 %4, 0
  br i1 %.not14, label %39, label %sub_0

sub_0:                                            ; preds = %3
  %5 = load i8, ptr %0, align 1
  %.not47 = icmp eq i8 %5, 49
  br i1 %.not47, label %.tail, label %.tail.thread

.tail:                                            ; preds = %sub_0
  %6 = getelementptr inbounds nuw i8, ptr %0, i64 1
  %7 = load i8, ptr %6, align 1
  %8 = icmp eq i8 %7, 0
  br i1 %8, label %39, label %.tail.thread

.tail.thread:                                     ; preds = %sub_0, %.tail
  %9 = tail call i32 @strcmp(ptr noundef nonnull dereferenceable(1) %0, ptr noundef nonnull dereferenceable(13) @.str.12) #11
  %.not16 = icmp eq i32 %9, 0
  br i1 %.not16, label %39, label %10

10:                                               ; preds = %.tail.thread
  %11 = tail call i32 @strcmp(ptr noundef nonnull dereferenceable(1) %0, ptr noundef nonnull dereferenceable(9) @.str.13) #11
  %.not17 = icmp eq i32 %11, 0
  br i1 %.not17, label %39, label %sub_027

sub_027:                                          ; preds = %10
  %.not48 = icmp eq i8 %5, 99
  br i1 %.not48, label %.tail26, label %.thread

.tail26:                                          ; preds = %sub_027
  %12 = getelementptr inbounds nuw i8, ptr %0, i64 1
  %13 = load i8, ptr %12, align 1
  %14 = icmp eq i8 %13, 0
  br i1 %14, label %39, label %15

15:                                               ; preds = %.tail26
  %16 = tail call i32 @strcmp(ptr noundef nonnull dereferenceable(1) %0, ptr noundef nonnull dereferenceable(9) @.str.15) #11
  %.not19 = icmp eq i32 %16, 0
  br i1 %.not19, label %39, label %sub_132

.thread:                                          ; preds = %sub_027
  %17 = tail call i32 @strcmp(ptr noundef nonnull dereferenceable(1) %0, ptr noundef nonnull dereferenceable(9) @.str.15) #11
  %.not1957 = icmp eq i32 %17, 0
  br i1 %.not1957, label %39, label %.tail30.thread

sub_132:                                          ; preds = %15
  %18 = getelementptr inbounds nuw i8, ptr %0, i64 1
  %19 = load i8, ptr %18, align 1
  %.not50 = icmp eq i8 %19, 99
  br i1 %.not50, label %.tail30, label %.tail30.thread

.tail30:                                          ; preds = %sub_132
  %20 = getelementptr inbounds nuw i8, ptr %0, i64 2
  %21 = load i8, ptr %20, align 1
  %22 = icmp eq i8 %21, 0
  br i1 %22, label %39, label %.tail30.thread

.tail30.thread:                                   ; preds = %.thread, %sub_132, %.tail30
  %23 = tail call i32 @strcmp(ptr noundef nonnull dereferenceable(1) %0, ptr noundef nonnull dereferenceable(15) @.str.17) #11
  %.not21 = icmp eq i32 %23, 0
  br i1 %.not21, label %39, label %sub_035

sub_035:                                          ; preds = %.tail30.thread
  %.not51 = icmp eq i8 %5, 114
  br i1 %.not51, label %.tail34, label %.tail34.thread

.tail34:                                          ; preds = %sub_035
  %24 = getelementptr inbounds nuw i8, ptr %0, i64 1
  %25 = load i8, ptr %24, align 1
  %26 = icmp eq i8 %25, 0
  br i1 %26, label %39, label %.thread60

.tail34.thread:                                   ; preds = %sub_035
  %27 = tail call i32 @strcmp(ptr noundef nonnull dereferenceable(1) %0, ptr noundef nonnull dereferenceable(8) @.str.19) #11
  %.not23 = icmp eq i32 %27, 0
  br i1 %.not23, label %39, label %sub_039

.thread60:                                        ; preds = %.tail34
  %28 = tail call i32 @strcmp(ptr noundef nonnull dereferenceable(1) %0, ptr noundef nonnull dereferenceable(8) @.str.19) #11
  %.not2361 = icmp eq i32 %28, 0
  br i1 %.not2361, label %39, label %.tail42.thread

sub_039:                                          ; preds = %.tail34.thread
  switch i8 %5, label %.tail42.thread [
    i8 109, label %.tail38
    i8 111, label %sub_144
  ]

.tail38:                                          ; preds = %sub_039
  %29 = getelementptr inbounds nuw i8, ptr %0, i64 1
  %30 = load i8, ptr %29, align 1
  %31 = icmp eq i8 %30, 0
  br i1 %31, label %37, label %.tail42.thread

sub_144:                                          ; preds = %sub_039
  %32 = getelementptr inbounds nuw i8, ptr %0, i64 1
  %33 = load i8, ptr %32, align 1
  %.not54 = icmp eq i8 %33, 110
  br i1 %.not54, label %.tail42, label %.tail42.thread

.tail42.thread:                                   ; preds = %sub_039, %sub_144, %.thread60, %.tail38
  br label %39

.tail42:                                          ; preds = %sub_144
  %34 = getelementptr inbounds nuw i8, ptr %0, i64 2
  %35 = load i8, ptr %34, align 1
  %36 = icmp eq i8 %35, 0
  br i1 %36, label %37, label %39

37:                                               ; preds = %.tail42, %.tail38
  %38 = load ptr, ptr @set_to_default, align 8, !tbaa !4
  br label %39

39:                                               ; preds = %.tail42.thread, %.thread60, %.thread, %.tail42, %.tail34, %.tail34.thread, %.tail30, %.tail30.thread, %.tail26, %15, %10, %.tail, %.tail.thread, %1, %3, %37
  %.0 = phi ptr [ %38, %37 ], [ @set_none, %3 ], [ @set_none, %1 ], [ @set_first_parent, %.tail.thread ], [ @set_first_parent, %.tail ], [ @set_separate, %10 ], [ @set_combined, %15 ], [ @set_combined, %.tail26 ], [ @set_dense_combined, %.tail30.thread ], [ @set_dense_combined, %.tail30 ], [ @set_remerge_diff, %.tail34.thread ], [ @set_remerge_diff, %.tail34 ], [ null, %.tail42 ], [ @set_combined, %.thread ], [ @set_remerge_diff, %.thread60 ], [ null, %.tail42.thread ]
  ret ptr %.0
}